; Function Attrs: nounwind uwtable
define range(i32 -1, 1) i32 @H5L_register(ptr nocapture noundef readonly %0) local_unnamed_addr #0 {
  %2 = load i64, ptr @H5L_table_used_g, align 8
  %.not = icmp eq i64 %2, 0
  %.pre22.pre.pre = load ptr, ptr @H5L_table_g, align 8
  br i1 %.not, label %._crit_edge, label %.lr.ph

.lr.ph:                                           ; preds = %1
  %3 = getelementptr inbounds i8, ptr %0, i64 4
  %4 = load i32, ptr %3, align 4
  br label %5

5:                                                ; preds = %.lr.ph, %9
  %.020 = phi i64 [ 0, %.lr.ph ], [ %10, %9 ]
  %6 = getelementptr inbounds %struct.H5L_class_t, ptr %.pre22.pre.pre, i64 %.020, i32 1
  %7 = load i32, ptr %6, align 4
  %8 = icmp eq i32 %7, %4
  br i1 %8, label %.thread, label %9

9:                                                ; preds = %5
  %10 = add nuw i64 %.020, 1
  %exitcond.not = icmp eq i64 %10, %2
  br i1 %exitcond.not, label %._crit_edge, label %5

._crit_edge:                                      ; preds = %9, %1
  %11 = load i64, ptr @H5L_table_alloc_g, align 8
  %.not16 = icmp ult i64 %2, %11
  br i1 %.not16, label %22, label %12

12:                                               ; preds = %._crit_edge
  %13 = shl i64 %11, 1
  %14 = tail call i64 @llvm.umax.i64(i64 %13, i64 32)
  %15 = shl i64 %14, 6
  %16 = tail call ptr @H5MM_realloc(ptr noundef %.pre22.pre.pre, i64 noundef %15) #10
  %.not17 = icmp eq ptr %16, null
  br i1 %.not17, label %17, label %21

17:                                               ; preds = %12
  %18 = load i64, ptr @H5E_RESOURCE_g, align 8
  %19 = load i64, ptr @H5E_NOSPACE_g, align 8
  %20 = tail call i32 (ptr, ptr, i32, i64, i64, ptr, ...) @H5E_printf_stack(ptr noundef nonnull @.str, ptr noundef nonnull @__func__.H5L_register, i32 noundef 334, i64 noundef %18, i64 noundef %19, ptr noundef nonnull @.str.3) #10
  br label %27

21:                                               ; preds = %12
  store ptr %16, ptr @H5L_table_g, align 8
  store i64 %14, ptr @H5L_table_alloc_g, align 8
  %.pre = load i64, ptr @H5L_table_used_g, align 8
  br label %22

22:                                               ; preds = %21, %._crit_edge
  %.pre22 = phi ptr [ %16, %21 ], [ %.pre22.pre.pre, %._crit_edge ]
  %23 = phi i64 [ %.pre, %21 ], [ %2, %._crit_edge ]
  %24 = add i64 %23, 1
  store i64 %24, ptr @H5L_table_used_g, align 8
  br label %.thread

.thread:                                          ; preds = %5, %22
  %25 = phi ptr [ %.pre22, %22 ], [ %.pre22.pre.pre, %5 ]
  %.1 = phi i64 [ %23, %22 ], [ %.020, %5 ]
  %26 = getelementptr inbounds %struct.H5L_class_t, ptr %25, i64 %.1
  tail call void @llvm.memcpy.p0.p0.i64(ptr noundef nonnull align 8 dereferenceable(64) %26, ptr noundef nonnull align 8 dereferenceable(64) %0, i64 64, i1 false)
  br label %27

27:                                               ; preds = %.thread, %17
  %.012 = phi i32 [ 0, %.thread ], [ -1, %17 ]
  ret i32 %.012
}